; Function Attrs: nounwind uwtable
define dso_local void @add_variable_to_tail(ptr noundef captures(none) %0, ptr noundef %1, ptr noundef %2) local_unnamed_addr #0 {
  %4 = tail call ptr @mm_alloc(i64 noundef 24) #6
  %5 = load ptr, ptr %0, align 8
  br label %6

6:                                                ; preds = %7, %3
  %.0 = phi ptr [ %5, %3 ], [ %9, %7 ]
  %.not = icmp eq ptr %.0, null
  br i1 %.not, label %14, label %7

7:                                                ; preds = %6
  %8 = getelementptr inbounds nuw i8, ptr %.0, i64 16
  %9 = load ptr, ptr %8, align 8
  %.not15 = icmp eq ptr %9, null
  br i1 %.not15, label %10, label %6, !llvm.loop !14

10:                                               ; preds = %7
  %11 = getelementptr inbounds nuw i8, ptr %.0, i64 16
  store ptr %1, ptr %4, align 8
  %12 = getelementptr inbounds nuw i8, ptr %4, i64 8
  store ptr %2, ptr %12, align 8
  %13 = getelementptr inbounds nuw i8, ptr %4, i64 16
  store ptr null, ptr %13, align 8
  store ptr %4, ptr %11, align 8
  br label %17

14:                                               ; preds = %6
  store ptr %1, ptr %4, align 8
  %15 = getelementptr inbounds nuw i8, ptr %4, i64 8
  store ptr %2, ptr %15, align 8
  %16 = getelementptr inbounds nuw i8, ptr %4, i64 16
  store ptr null, ptr %16, align 8
  store ptr %4, ptr %0, align 8
  br label %17

17:                                               ; preds = %14, %10
  ret void
}